target datalayout = "e-m:e-p270:32:32-p271:32:32-p272:64:64-i64:64-i128:128-f80:128-n8:16:32:64-S128"
target triple = "x86_64-pc-linux-gnu"

%struct.pxr_nc_1_0_ColorSpace = type { %struct.pxr_nc_1_0_ColorSpaceDescriptor, float, float, %struct.pxr_nc_1_0_M33f }
%struct.pxr_nc_1_0_ColorSpaceDescriptor = type { ptr, %struct.pxr_nc_1_0_Chromaticity, %struct.pxr_nc_1_0_Chromaticity, %struct.pxr_nc_1_0_Chromaticity, %struct.pxr_nc_1_0_Chromaticity, float, float }
%struct.pxr_nc_1_0_Chromaticity = type { float, float }
%struct.pxr_nc_1_0_M33f = type { [9 x float] }

@Nc_acescg = global ptr @_acescg, align 8
@Nc_adobergb = global ptr @_adobergb, align 8
@Nc_g18_ap1 = global ptr @_g18_ap1, align 8
@Nc_g18_rec709 = global ptr @_g18_rec709, align 8
@Nc_g22_ap1 = global ptr @_g22_ap1, align 8
@Nc_g22_rec709 = global ptr @_g22_rec709, align 8
@Nc_identity = global ptr @_identity, align 8
@Nc_lin_adobergb = global ptr @_lin_adobergb, align 8
@Nc_lin_ap0 = global ptr @_lin_ap0, align 8
@Nc_lin_ap1 = global ptr @_lin_ap1, align 8
@Nc_lin_displayp3 = global ptr @_lin_displayp3, align 8
@Nc_lin_rec709 = global ptr @_lin_rec709, align 8
@Nc_lin_rec2020 = global ptr @_lin_rec2020, align 8
@Nc_lin_srgb = global ptr @_lin_srgb, align 8
@Nc_raw = global ptr @_raw, align 8
@Nc_srgb_displayp3 = global ptr @_srgb_displayp3, align 8
@Nc_sRGB = global ptr @_sRGB, align 8
@Nc_srgb_texture = global ptr @_srgb_texture, align 8
@.str = private unnamed_addr constant [86 x i8] c"Academy Color Encoding System (ACEScg), a color space designed for computer graphics.\00", align 1
@.str.1 = private unnamed_addr constant [60 x i8] c"Adobe RGB (1998), a color space developed by Adobe Systems.\00", align 1
@.str.2 = private unnamed_addr constant [55 x i8] c"Gamma 1.8, primaries from ACES, white point from ACES.\00", align 1
@.str.3 = private unnamed_addr constant [58 x i8] c"Gamma 1.8, primaries from Rec. 709, white point from D65.\00", align 1
@.str.4 = private unnamed_addr constant [55 x i8] c"Gamma 2.2, primaries from ACES, white point from ACES.\00", align 1
@.str.5 = private unnamed_addr constant [58 x i8] c"Gamma 2.2, primaries from Rec. 709, white point from D65.\00", align 1
@.str.6 = private unnamed_addr constant [37 x i8] c"Identity color space, no conversion.\00", align 1
@.str.7 = private unnamed_addr constant [67 x i8] c"Linear Adobe RGB (1998), a color space developed by Adobe Systems.\00", align 1
@.str.8 = private unnamed_addr constant [55 x i8] c"Linear transfer, AP1 primaries, white point from ACES.\00", align 1
@.str.9 = private unnamed_addr constant [55 x i8] c"Linear transfer, AP0 primaries, white point from ACES.\00", align 1
@.str.10 = private unnamed_addr constant [65 x i8] c"Linear Display P3, a color space using the Display P3 primaries.\00", align 1
@.str.11 = private unnamed_addr constant [61 x i8] c"Linear Rec. 709, a color space using the Rec. 709 primaries.\00", align 1
@.str.12 = private unnamed_addr constant [63 x i8] c"Linear Rec. 2020, a color space using the Rec. 2020 primaries.\00", align 1
@.str.13 = private unnamed_addr constant [53 x i8] c"Linear sRGB, a color space using the sRGB primaries.\00", align 1
@.str.14 = private unnamed_addr constant [32 x i8] c"Raw color space, no conversion.\00", align 1
@.str.15 = private unnamed_addr constant [63 x i8] c"sRGB Display P3, a color space using the Display P3 primaries.\00", align 1
@.str.16 = private unnamed_addr constant [59 x i8] c"sRGB, a display color space developed by HP and Microsoft.\00", align 1
@.str.17 = private unnamed_addr constant [54 x i8] c"sRGB Texture, a color space using the sRGB primaries.\00", align 1

; Function Attrs: nounwind uwtable
define ptr @pxr_nc_1_0_GetDescription(ptr noundef %0) #0 {
  %2 = alloca ptr, align 8
  %3 = alloca ptr, align 8
  store ptr %0, ptr %3, align 8
  %4 = load ptr, ptr %3, align 8
  %5 = icmp ne ptr %4, null
  br i1 %5, label %7, label %6

6:                                                ; preds = %1
  store ptr null, ptr %2, align 8
  br label %174

7:                                                ; preds = %1
  %8 = load ptr, ptr %3, align 8
  %9 = getelementptr inbounds nuw %struct.pxr_nc_1_0_ColorSpace, ptr %8, i32 0, i32 0
  %10 = getelementptr inbounds nuw %struct.pxr_nc_1_0_ColorSpaceDescriptor, ptr %9, i32 0, i32 0
  %11 = load ptr, ptr %10, align 8
  %12 = load ptr, ptr @Nc_acescg, align 8
  %13 = call i32 @strcmp(ptr noundef %11, ptr noundef %12) #7
  %14 = icmp ne i32 %13, 0
  br i1 %14, label %16, label %15

15:                                               ; preds = %7
  store ptr @.str, ptr %2, align 8
  br label %174

16:                                               ; preds = %7
  %17 = load ptr, ptr %3, align 8
  %18 = getelementptr inbounds nuw %struct.pxr_nc_1_0_ColorSpace, ptr %17, i32 0, i32 0
  %19 = getelementptr inbounds nuw %struct.pxr_nc_1_0_ColorSpaceDescriptor, ptr %18, i32 0, i32 0
  %20 = load ptr, ptr %19, align 8
  %21 = load ptr, ptr @Nc_adobergb, align 8
  %22 = call i32 @strcmp(ptr noundef %20, ptr noundef %21) #7
  %23 = icmp ne i32 %22, 0
  br i1 %23, label %25, label %24

24:                                               ; preds = %16
  store ptr @.str.1, ptr %2, align 8
  br label %174

25:                                               ; preds = %16
  %26 = load ptr, ptr %3, align 8
  %27 = getelementptr inbounds nuw %struct.pxr_nc_1_0_ColorSpace, ptr %26, i32 0, i32 0
  %28 = getelementptr inbounds nuw %struct.pxr_nc_1_0_ColorSpaceDescriptor, ptr %27, i32 0, i32 0
  %29 = load ptr, ptr %28, align 8
  %30 = load ptr, ptr @Nc_g18_ap1, align 8
  %31 = call i32 @strcmp(ptr noundef %29, ptr noundef %30) #7
  %32 = icmp ne i32 %31, 0
  br i1 %32, label %34, label %33

33:                                               ; preds = %25
  store ptr @.str.2, ptr %2, align 8
  br label %174

34:                                               ; preds = %25
  %35 = load ptr, ptr %3, align 8
  %36 = getelementptr inbounds nuw %struct.pxr_nc_1_0_ColorSpace, ptr %35, i32 0, i32 0
  %37 = getelementptr inbounds nuw %struct.pxr_nc_1_0_ColorSpaceDescriptor, ptr %36, i32 0, i32 0
  %38 = load ptr, ptr %37, align 8
  %39 = load ptr, ptr @Nc_g18_rec709, align 8
  %40 = call i32 @strcmp(ptr noundef %38, ptr noundef %39) #7
  %41 = icmp ne i32 %40, 0
  br i1 %41, label %43, label %42

42:                                               ; preds = %34
  store ptr @.str.3, ptr %2, align 8
  br label %174

43:                                               ; preds = %34
  %44 = load ptr, ptr %3, align 8
  %45 = getelementptr inbounds nuw %struct.pxr_nc_1_0_ColorSpace, ptr %44, i32 0, i32 0
  %46 = getelementptr inbounds nuw %struct.pxr_nc_1_0_ColorSpaceDescriptor, ptr %45, i32 0, i32 0
  %47 = load ptr, ptr %46, align 8
  %48 = load ptr, ptr @Nc_g22_ap1, align 8
  %49 = call i32 @strcmp(ptr noundef %47, ptr noundef %48) #7
  %50 = icmp ne i32 %49, 0
  br i1 %50, label %52, label %51

51:                                               ; preds = %43
  store ptr @.str.4, ptr %2, align 8
  br label %174

52:                                               ; preds = %43
  %53 = load ptr, ptr %3, align 8
  %54 = getelementptr inbounds nuw %struct.pxr_nc_1_0_ColorSpace, ptr %53, i32 0, i32 0
  %55 = getelementptr inbounds nuw %struct.pxr_nc_1_0_ColorSpaceDescriptor, ptr %54, i32 0, i32 0
  %56 = load ptr, ptr %55, align 8
  %57 = load ptr, ptr @Nc_g22_rec709, align 8
  %58 = call i32 @strcmp(ptr noundef %56, ptr noundef %57) #7
  %59 = icmp ne i32 %58, 0
  br i1 %59, label %61, label %60

60:                                               ; preds = %52
  store ptr @.str.5, ptr %2, align 8
  br label %174

61:                                               ; preds = %52
  %62 = load ptr, ptr %3, align 8
  %63 = getelementptr inbounds nuw %struct.pxr_nc_1_0_ColorSpace, ptr %62, i32 0, i32 0
  %64 = getelementptr inbounds nuw %struct.pxr_nc_1_0_ColorSpaceDescriptor, ptr %63, i32 0, i32 0
  %65 = load ptr, ptr %64, align 8
  %66 = load ptr, ptr @Nc_identity, align 8
  %67 = call i32 @strcmp(ptr noundef %65, ptr noundef %66) #7
  %68 = icmp ne i32 %67, 0
  br i1 %68, label %70, label %69

69:                                               ; preds = %61
  store ptr @.str.6, ptr %2, align 8
  br label %174

70:                                               ; preds = %61
  %71 = load ptr, ptr %3, align 8
  %72 = getelementptr inbounds nuw %struct.pxr_nc_1_0_ColorSpace, ptr %71, i32 0, i32 0
  %73 = getelementptr inbounds nuw %struct.pxr_nc_1_0_ColorSpaceDescriptor, ptr %72, i32 0, i32 0
  %74 = load ptr, ptr %73, align 8
  %75 = load ptr, ptr @Nc_lin_adobergb, align 8
  %76 = call i32 @strcmp(ptr noundef %74, ptr noundef %75) #7
  %77 = icmp ne i32 %76, 0
  br i1 %77, label %79, label %78

78:                                               ; preds = %70
  store ptr @.str.7, ptr %2, align 8
  br label %174

79:                                               ; preds = %70
  %80 = load ptr, ptr %3, align 8
  %81 = getelementptr inbounds nuw %struct.pxr_nc_1_0_ColorSpace, ptr %80, i32 0, i32 0
  %82 = getelementptr inbounds nuw %struct.pxr_nc_1_0_ColorSpaceDescriptor, ptr %81, i32 0, i32 0
  %83 = load ptr, ptr %82, align 8
  %84 = load ptr, ptr @Nc_lin_ap0, align 8
  %85 = call i32 @strcmp(ptr noundef %83, ptr noundef %84) #7
  %86 = icmp ne i32 %85, 0
  br i1 %86, label %88, label %87

87:                                               ; preds = %79
  store ptr @.str.8, ptr %2, align 8
  br label %174

88:                                               ; preds = %79
  %89 = load ptr, ptr %3, align 8
  %90 = getelementptr inbounds nuw %struct.pxr_nc_1_0_ColorSpace, ptr %89, i32 0, i32 0
  %91 = getelementptr inbounds nuw %struct.pxr_nc_1_0_ColorSpaceDescriptor, ptr %90, i32 0, i32 0
  %92 = load ptr, ptr %91, align 8
  %93 = load ptr, ptr @Nc_lin_ap1, align 8
  %94 = call i32 @strcmp(ptr noundef %92, ptr noundef %93) #7
  %95 = icmp ne i32 %94, 0
  br i1 %95, label %97, label %96

96:                                               ; preds = %88
  store ptr @.str.9, ptr %2, align 8
  br label %174

97:                                               ; preds = %88
  %98 = load ptr, ptr %3, align 8
  %99 = getelementptr inbounds nuw %struct.pxr_nc_1_0_ColorSpace, ptr %98, i32 0, i32 0
  %100 = getelementptr inbounds nuw %struct.pxr_nc_1_0_ColorSpaceDescriptor, ptr %99, i32 0, i32 0
  %101 = load ptr, ptr %100, align 8
  %102 = load ptr, ptr @Nc_lin_displayp3, align 8
  %103 = call i32 @strcmp(ptr noundef %101, ptr noundef %102) #7
  %104 = icmp ne i32 %103, 0
  br i1 %104, label %106, label %105

105:                                              ; preds = %97
  store ptr @.str.10, ptr %2, align 8
  br label %174

106:                                              ; preds = %97
  %107 = load ptr, ptr %3, align 8
  %108 = getelementptr inbounds nuw %struct.pxr_nc_1_0_ColorSpace, ptr %107, i32 0, i32 0
  %109 = getelementptr inbounds nuw %struct.pxr_nc_1_0_ColorSpaceDescriptor, ptr %108, i32 0, i32 0
  %110 = load ptr, ptr %109, align 8
  %111 = load ptr, ptr @Nc_lin_rec709, align 8
  %112 = call i32 @strcmp(ptr noundef %110, ptr noundef %111) #7
  %113 = icmp ne i32 %112, 0
  br i1 %113, label %115, label %114

114:                                              ; preds = %106
  store ptr @.str.11, ptr %2, align 8
  br label %174

115:                                              ; preds = %106
  %116 = load ptr, ptr %3, align 8
  %117 = getelementptr inbounds nuw %struct.pxr_nc_1_0_ColorSpace, ptr %116, i32 0, i32 0
  %118 = getelementptr inbounds nuw %struct.pxr_nc_1_0_ColorSpaceDescriptor, ptr %117, i32 0, i32 0
  %119 = load ptr, ptr %118, align 8
  %120 = load ptr, ptr @Nc_lin_rec2020, align 8
  %121 = call i32 @strcmp(ptr noundef %119, ptr noundef %120) #7
  %122 = icmp ne i32 %121, 0
  br i1 %122, label %124, label %123

123:                                              ; preds = %115
  store ptr @.str.12, ptr %2, align 8
  br label %174

124:                                              ; preds = %115
  %125 = load ptr, ptr %3, align 8
  %126 = getelementptr inbounds nuw %struct.pxr_nc_1_0_ColorSpace, ptr %125, i32 0, i32 0
  %127 = getelementptr inbounds nuw %struct.pxr_nc_1_0_ColorSpaceDescriptor, ptr %126, i32 0, i32 0
  %128 = load ptr, ptr %127, align 8
  %129 = load ptr, ptr @Nc_lin_srgb, align 8
  %130 = call i32 @strcmp(ptr noundef %128, ptr noundef %129) #7
  %131 = icmp ne i32 %130, 0
  br i1 %131, label %133, label %132

132:                                              ; preds = %124
  store ptr @.str.13, ptr %2, align 8
  br label %174

133:                                              ; preds = %124
  %134 = load ptr, ptr %3, align 8
  %135 = getelementptr inbounds nuw %struct.pxr_nc_1_0_ColorSpace, ptr %134, i32 0, i32 0
  %136 = getelementptr inbounds nuw %struct.pxr_nc_1_0_ColorSpaceDescriptor, ptr %135, i32 0, i32 0
  %137 = load ptr, ptr %136, align 8
  %138 = load ptr, ptr @Nc_raw, align 8
  %139 = call i32 @strcmp(ptr noundef %137, ptr noundef %138) #7
  %140 = icmp ne i32 %139, 0
  br i1 %140, label %142, label %141

141:                                              ; preds = %133
  store ptr @.str.14, ptr %2, align 8
  br label %174

142:                                              ; preds = %133
  %143 = load ptr, ptr %3, align 8
  %144 = getelementptr inbounds nuw %struct.pxr_nc_1_0_ColorSpace, ptr %143, i32 0, i32 0
  %145 = getelementptr inbounds nuw %struct.pxr_nc_1_0_ColorSpaceDescriptor, ptr %144, i32 0, i32 0
  %146 = load ptr, ptr %145, align 8
  %147 = load ptr, ptr @Nc_srgb_displayp3, align 8
  %148 = call i32 @strcmp(ptr noundef %146, ptr noundef %147) #7
  %149 = icmp ne i32 %148, 0
  br i1 %149, label %151, label %150

150:                                              ; preds = %142
  store ptr @.str.15, ptr %2, align 8
  br label %174

151:                                              ; preds = %142
  %152 = load ptr, ptr %3, align 8
  %153 = getelementptr inbounds nuw %struct.pxr_nc_1_0_ColorSpace, ptr %152, i32 0, i32 0
  %154 = getelementptr inbounds nuw %struct.pxr_nc_1_0_ColorSpaceDescriptor, ptr %153, i32 0, i32 0
  %155 = load ptr, ptr %154, align 8
  %156 = load ptr, ptr @Nc_sRGB, align 8
  %157 = call i32 @strcmp(ptr noundef %155, ptr noundef %156) #7
  %158 = icmp ne i32 %157, 0
  br i1 %158, label %160, label %159

159:                                              ; preds = %151
  store ptr @.str.16, ptr %2, align 8
  br label %174

160:                                              ; preds = %151
  %161 = load ptr, ptr %3, align 8
  %162 = getelementptr inbounds nuw %struct.pxr_nc_1_0_ColorSpace, ptr %161, i32 0, i32 0
  %163 = getelementptr inbounds nuw %struct.pxr_nc_1_0_ColorSpaceDescriptor, ptr %162, i32 0, i32 0
  %164 = load ptr, ptr %163, align 8
  %165 = load ptr, ptr @Nc_srgb_texture, align 8
  %166 = call i32 @strcmp(ptr noundef %164, ptr noundef %165) #7
  %167 = icmp ne i32 %166, 0
  br i1 %167, label %169, label %168

168:                                              ; preds = %160
  store ptr @.str.17, ptr %2, align 8
  br label %174

169:                                              ; preds = %160
  %170 = load ptr, ptr %3, align 8
  %171 = getelementptr inbounds nuw %struct.pxr_nc_1_0_ColorSpace, ptr %170, i32 0, i32 0
  %172 = getelementptr inbounds nuw %struct.pxr_nc_1_0_ColorSpaceDescriptor, ptr %171, i32 0, i32 0
  %173 = load ptr, ptr %172, align 8
  store ptr %173, ptr %2, align 8
  br label %174

174:                                              ; preds = %169, %168, %159, %150, %141, %132, %123, %114, %105, %96, %87, %78, %69, %60, %51, %42, %33, %24, %15, %6
  %175 = load ptr, ptr %2, align 8
  ret ptr %175
}