; Function Attrs: mustprogress nofree nounwind willreturn memory(read, inaccessiblemem: none) uwtable
define ptr @pxr_nc_1_0_GetDescription(ptr noundef readonly %0) local_unnamed_addr #0 {
  %.not = icmp eq ptr %0, null
  br i1 %.not, label %57, label %2

2:                                                ; preds = %1
  %3 = load ptr, ptr %0, align 8
  %4 = load ptr, ptr @Nc_acescg, align 8
  %5 = tail call i32 @strcmp(ptr noundef nonnull dereferenceable(1) %3, ptr noundef nonnull dereferenceable(1) %4) #21
  %.not22 = icmp eq i32 %5, 0
  br i1 %.not22, label %57, label %6

6:                                                ; preds = %2
  %7 = load ptr, ptr @Nc_adobergb, align 8
  %8 = tail call i32 @strcmp(ptr noundef nonnull dereferenceable(1) %3, ptr noundef nonnull dereferenceable(1) %7) #21
  %.not23 = icmp eq i32 %8, 0
  br i1 %.not23, label %57, label %9

9:                                                ; preds = %6
  %10 = load ptr, ptr @Nc_g18_ap1, align 8
  %11 = tail call i32 @strcmp(ptr noundef nonnull dereferenceable(1) %3, ptr noundef nonnull dereferenceable(1) %10) #21
  %.not24 = icmp eq i32 %11, 0
  br i1 %.not24, label %57, label %12

12:                                               ; preds = %9
  %13 = load ptr, ptr @Nc_g18_rec709, align 8
  %14 = tail call i32 @strcmp(ptr noundef nonnull dereferenceable(1) %3, ptr noundef nonnull dereferenceable(1) %13) #21
  %.not25 = icmp eq i32 %14, 0
  br i1 %.not25, label %57, label %15

15:                                               ; preds = %12
  %16 = load ptr, ptr @Nc_g22_ap1, align 8
  %17 = tail call i32 @strcmp(ptr noundef nonnull dereferenceable(1) %3, ptr noundef nonnull dereferenceable(1) %16) #21
  %.not26 = icmp eq i32 %17, 0
  br i1 %.not26, label %57, label %18

18:                                               ; preds = %15
  %19 = load ptr, ptr @Nc_g22_rec709, align 8
  %20 = tail call i32 @strcmp(ptr noundef nonnull dereferenceable(1) %3, ptr noundef nonnull dereferenceable(1) %19) #21
  %.not27 = icmp eq i32 %20, 0
  br i1 %.not27, label %57, label %21

21:                                               ; preds = %18
  %22 = load ptr, ptr @Nc_identity, align 8
  %23 = tail call i32 @strcmp(ptr noundef nonnull dereferenceable(1) %3, ptr noundef nonnull dereferenceable(1) %22) #21
  %.not28 = icmp eq i32 %23, 0
  br i1 %.not28, label %57, label %24

24:                                               ; preds = %21
  %25 = load ptr, ptr @Nc_lin_adobergb, align 8
  %26 = tail call i32 @strcmp(ptr noundef nonnull dereferenceable(1) %3, ptr noundef nonnull dereferenceable(1) %25) #21
  %.not29 = icmp eq i32 %26, 0
  br i1 %.not29, label %57, label %27

27:                                               ; preds = %24
  %28 = load ptr, ptr @Nc_lin_ap0, align 8
  %29 = tail call i32 @strcmp(ptr noundef nonnull dereferenceable(1) %3, ptr noundef nonnull dereferenceable(1) %28) #21
  %.not30 = icmp eq i32 %29, 0
  br i1 %.not30, label %57, label %30

30:                                               ; preds = %27
  %31 = load ptr, ptr @Nc_lin_ap1, align 8
  %32 = tail call i32 @strcmp(ptr noundef nonnull dereferenceable(1) %3, ptr noundef nonnull dereferenceable(1) %31) #21
  %.not31 = icmp eq i32 %32, 0
  br i1 %.not31, label %57, label %33

33:                                               ; preds = %30
  %34 = load ptr, ptr @Nc_lin_displayp3, align 8
  %35 = tail call i32 @strcmp(ptr noundef nonnull dereferenceable(1) %3, ptr noundef nonnull dereferenceable(1) %34) #21
  %.not32 = icmp eq i32 %35, 0
  br i1 %.not32, label %57, label %36

36:                                               ; preds = %33
  %37 = load ptr, ptr @Nc_lin_rec709, align 8
  %38 = tail call i32 @strcmp(ptr noundef nonnull dereferenceable(1) %3, ptr noundef nonnull dereferenceable(1) %37) #21
  %.not33 = icmp eq i32 %38, 0
  br i1 %.not33, label %57, label %39

39:                                               ; preds = %36
  %40 = load ptr, ptr @Nc_lin_rec2020, align 8
  %41 = tail call i32 @strcmp(ptr noundef nonnull dereferenceable(1) %3, ptr noundef nonnull dereferenceable(1) %40) #21
  %.not34 = icmp eq i32 %41, 0
  br i1 %.not34, label %57, label %42

42:                                               ; preds = %39
  %43 = load ptr, ptr @Nc_lin_srgb, align 8
  %44 = tail call i32 @strcmp(ptr noundef nonnull dereferenceable(1) %3, ptr noundef nonnull dereferenceable(1) %43) #21
  %.not35 = icmp eq i32 %44, 0
  br i1 %.not35, label %57, label %45

45:                                               ; preds = %42
  %46 = load ptr, ptr @Nc_raw, align 8
  %47 = tail call i32 @strcmp(ptr noundef nonnull dereferenceable(1) %3, ptr noundef nonnull dereferenceable(1) %46) #21
  %.not36 = icmp eq i32 %47, 0
  br i1 %.not36, label %57, label %48

48:                                               ; preds = %45
  %49 = load ptr, ptr @Nc_srgb_displayp3, align 8
  %50 = tail call i32 @strcmp(ptr noundef nonnull dereferenceable(1) %3, ptr noundef nonnull dereferenceable(1) %49) #21
  %.not37 = icmp eq i32 %50, 0
  br i1 %.not37, label %57, label %51

51:                                               ; preds = %48
  %52 = load ptr, ptr @Nc_sRGB, align 8
  %53 = tail call i32 @strcmp(ptr noundef nonnull dereferenceable(1) %3, ptr noundef nonnull dereferenceable(1) %52) #21
  %.not38 = icmp eq i32 %53, 0
  br i1 %.not38, label %57, label %54

54:                                               ; preds = %51
  %55 = load ptr, ptr @Nc_srgb_texture, align 8
  %56 = tail call i32 @strcmp(ptr noundef nonnull dereferenceable(1) %3, ptr noundef nonnull dereferenceable(1) %55) #21
  %.not39 = icmp eq i32 %56, 0
  %.str.17. = select i1 %.not39, ptr @.str.17, ptr %3
  br label %57

57:                                               ; preds = %54, %51, %48, %45, %42, %39, %36, %33, %30, %27, %24, %21, %18, %15, %12, %9, %6, %2, %1
  %.0 = phi ptr [ null, %1 ], [ @.str, %2 ], [ @.str.1, %6 ], [ @.str.2, %9 ], [ @.str.3, %12 ], [ @.str.4, %15 ], [ @.str.5, %18 ], [ @.str.6, %21 ], [ @.str.7, %24 ], [ @.str.8, %27 ], [ @.str.9, %30 ], [ @.str.10, %33 ], [ @.str.11, %36 ], [ @.str.12, %39 ], [ @.str.13, %42 ], [ @.str.14, %45 ], [ @.str.15, %48 ], [ @.str.16, %51 ], [ %.str.17., %54 ]
  ret ptr %.0
}